; Function Attrs: mustprogress uwtable
define internal noundef nonnull ptr @_ZNK2cv7TLSDataINS_12_GLOBAL__N_18ThreadIDEE18createDataInstanceEv(ptr nonnull readnone align 8 captures(none) %0) unnamed_addr #3 align 2 personality ptr @__gxx_personality_v0 {
  %2 = alloca %"class.std::__cxx11::basic_string", align 8
  %3 = tail call noalias noundef nonnull dereferenceable(4) ptr @_Znwm(i64 noundef 4) #49
  %4 = atomicrmw add ptr @_ZN2cv12_GLOBAL__N_111g_threadNumE, i32 1 acq_rel, align 4
  store i32 %4, ptr %3, align 4, !tbaa !181
  %5 = load atomic i8, ptr @_ZGVZN2cv12_GLOBAL__N_118overrideThreadNameEvE5param acquire, align 8
  %6 = icmp eq i8 %5, 0
  br i1 %6, label %7, label %_ZN2cv12_GLOBAL__N_118overrideThreadNameEv.exit.i, !prof !95

7:                                                ; preds = %1
  %8 = tail call i32 @__cxa_guard_acquire(ptr nonnull @_ZGVZN2cv12_GLOBAL__N_118overrideThreadNameEvE5param) #34
  %.not.i.i = icmp eq i32 %8, 0
  br i1 %.not.i.i, label %_ZN2cv12_GLOBAL__N_118overrideThreadNameEv.exit.i, label %9

9:                                                ; preds = %7
  %10 = invoke noundef zeroext i1 @_ZN2cv5utils29getConfigurationParameterBoolEPKcb(ptr noundef nonnull @.str.135, i1 noundef zeroext false)
          to label %11 unwind label %13

11:                                               ; preds = %9
  %12 = zext i1 %10 to i8
  store i8 %12, ptr @_ZZN2cv12_GLOBAL__N_118overrideThreadNameEvE5param, align 1, !tbaa !14
  tail call void @__cxa_guard_release(ptr nonnull @_ZGVZN2cv12_GLOBAL__N_118overrideThreadNameEvE5param) #34
  br label %_ZN2cv12_GLOBAL__N_118overrideThreadNameEv.exit.i

13:                                               ; preds = %9
  %14 = landingpad { ptr, i32 }
          cleanup
  tail call void @__cxa_guard_abort(ptr nonnull @_ZGVZN2cv12_GLOBAL__N_118overrideThreadNameEvE5param) #34
  br label %.body

_ZN2cv12_GLOBAL__N_118overrideThreadNameEv.exit.i: ; preds = %11, %7, %1
  %15 = load i8, ptr @_ZZN2cv12_GLOBAL__N_118overrideThreadNameEvE5param, align 1, !tbaa !14, !range !80, !noundef !81
  %16 = trunc nuw i8 %15 to i1
  br i1 %16, label %17, label %_ZN2cv12_GLOBAL__N_18ThreadIDC2Ev.exit

17:                                               ; preds = %_ZN2cv12_GLOBAL__N_118overrideThreadNameEv.exit.i
  %18 = load ptr, ptr @__itt_thread_set_name_ptr__3_0, align 8, !tbaa !115
  %.not.not.i = icmp eq ptr %18, null
  br i1 %.not.not.i, label %_ZN2cv12_GLOBAL__N_18ThreadIDC2Ev.exit, label %19

19:                                               ; preds = %17
  call void @llvm.lifetime.start.p0(i64 32, ptr nonnull %2) #34
  %20 = load i32, ptr %3, align 4, !tbaa !181
  invoke void (ptr, ptr, ...) @_ZN2cv6formatB5cxx11EPKcz(ptr dead_on_unwind nonnull writable sret(%"class.std::__cxx11::basic_string") align 8 %2, ptr noundef nonnull @.str.134, i32 noundef %20)
          to label %.noexc unwind label %36

.noexc:                                           ; preds = %19
  %21 = load ptr, ptr %2, align 8, !tbaa !21
  invoke void %18(ptr noundef %21)
          to label %.critedge.i unwind label %28

.critedge.i:                                      ; preds = %.noexc
  %22 = load ptr, ptr %2, align 8, !tbaa !21
  %23 = getelementptr inbounds nuw i8, ptr %2, i64 16
  %24 = icmp eq ptr %22, %23
  br i1 %24, label %_ZNKSt7__cxx1112basic_stringIcSt11char_traitsIcESaIcEE11_M_is_localEv.exit.thread.i.i.i, label %_ZNKSt7__cxx1112basic_stringIcSt11char_traitsIcESaIcEE11_M_is_localEv.exit.i.i.i

_ZNKSt7__cxx1112basic_stringIcSt11char_traitsIcESaIcEE11_M_is_localEv.exit.thread.i.i.i: ; preds = %.critedge.i
  %25 = getelementptr inbounds nuw i8, ptr %2, i64 8
  %26 = load i64, ptr %25, align 8, !tbaa !24
  %27 = icmp ult i64 %26, 16
  call void @llvm.assume(i1 %27)
  br label %_ZNSt7__cxx1112basic_stringIcSt11char_traitsIcESaIcEED2Ev.exit.i

_ZNKSt7__cxx1112basic_stringIcSt11char_traitsIcESaIcEE11_M_is_localEv.exit.i.i.i: ; preds = %.critedge.i
  call void @_ZdlPv(ptr noundef %22) #51
  br label %_ZNSt7__cxx1112basic_stringIcSt11char_traitsIcESaIcEED2Ev.exit.i

_ZNSt7__cxx1112basic_stringIcSt11char_traitsIcESaIcEED2Ev.exit.i: ; preds = %_ZNKSt7__cxx1112basic_stringIcSt11char_traitsIcESaIcEE11_M_is_localEv.exit.i.i.i, %_ZNKSt7__cxx1112basic_stringIcSt11char_traitsIcESaIcEE11_M_is_localEv.exit.thread.i.i.i
  call void @llvm.lifetime.end.p0(i64 32, ptr nonnull %2) #34
  br label %_ZN2cv12_GLOBAL__N_18ThreadIDC2Ev.exit

28:                                               ; preds = %.noexc
  %29 = landingpad { ptr, i32 }
          cleanup
  %30 = load ptr, ptr %2, align 8, !tbaa !21
  %31 = getelementptr inbounds nuw i8, ptr %2, i64 16
  %32 = icmp eq ptr %30, %31
  br i1 %32, label %_ZNKSt7__cxx1112basic_stringIcSt11char_traitsIcESaIcEE11_M_is_localEv.exit.thread.i.i12.i, label %_ZNKSt7__cxx1112basic_stringIcSt11char_traitsIcESaIcEE11_M_is_localEv.exit.i.i11.i

_ZNKSt7__cxx1112basic_stringIcSt11char_traitsIcESaIcEE11_M_is_localEv.exit.thread.i.i12.i: ; preds = %28
  %33 = getelementptr inbounds nuw i8, ptr %2, i64 8
  %34 = load i64, ptr %33, align 8, !tbaa !24
  %35 = icmp ult i64 %34, 16
  call void @llvm.assume(i1 %35)
  br label %_ZNSt7__cxx1112basic_stringIcSt11char_traitsIcESaIcEED2Ev.exit13.i

_ZNKSt7__cxx1112basic_stringIcSt11char_traitsIcESaIcEE11_M_is_localEv.exit.i.i11.i: ; preds = %28
  call void @_ZdlPv(ptr noundef %30) #51
  br label %_ZNSt7__cxx1112basic_stringIcSt11char_traitsIcESaIcEED2Ev.exit13.i

_ZNSt7__cxx1112basic_stringIcSt11char_traitsIcESaIcEED2Ev.exit13.i: ; preds = %_ZNKSt7__cxx1112basic_stringIcSt11char_traitsIcESaIcEE11_M_is_localEv.exit.i.i11.i, %_ZNKSt7__cxx1112basic_stringIcSt11char_traitsIcESaIcEE11_M_is_localEv.exit.thread.i.i12.i
  call void @llvm.lifetime.end.p0(i64 32, ptr nonnull %2) #34
  br label %.body

_ZN2cv12_GLOBAL__N_18ThreadIDC2Ev.exit:           ; preds = %_ZNSt7__cxx1112basic_stringIcSt11char_traitsIcESaIcEED2Ev.exit.i, %17, %_ZN2cv12_GLOBAL__N_118overrideThreadNameEv.exit.i
  ret ptr %3

36:                                               ; preds = %19
  %37 = landingpad { ptr, i32 }
          cleanup
  br label %.body

.body:                                            ; preds = %13, %_ZNSt7__cxx1112basic_stringIcSt11char_traitsIcESaIcEED2Ev.exit13.i, %36
  %eh.lpad-body = phi { ptr, i32 } [ %37, %36 ], [ %14, %13 ], [ %29, %_ZNSt7__cxx1112basic_stringIcSt11char_traitsIcESaIcEED2Ev.exit13.i ]
  call void @_ZdlPv(ptr noundef nonnull %3) #51
  resume { ptr, i32 } %eh.lpad-body
}